; Function Attrs: mustprogress uwtable
define void @_ZN4LIEF3ELF23SymbolVersionDefinitionC2ERKNS0_7details12Elf32_VerdefE(ptr noundef nonnull align 8 dereferenceable(48) %0, ptr nocapture noundef nonnull readonly align 1 dereferenceable(20) %1) unnamed_addr #3 align 2 {
  tail call void @_ZN4LIEF6ObjectC2Ev(ptr noundef nonnull align 8 dereferenceable(8) %0)
  store ptr getelementptr inbounds ({ [7 x ptr] }, ptr @_ZTVN4LIEF3ELF23SymbolVersionDefinitionE, i64 0, i32 0, i64 2), ptr %0, align 8
  %3 = getelementptr inbounds i8, ptr %0, i64 8
  %4 = load i16, ptr %1, align 1
  store i16 %4, ptr %3, align 8
  %5 = getelementptr inbounds i8, ptr %0, i64 10
  %6 = getelementptr inbounds i8, ptr %1, i64 2
  %7 = load i16, ptr %6, align 1
  store i16 %7, ptr %5, align 2
  %8 = getelementptr inbounds i8, ptr %0, i64 12
  %9 = getelementptr inbounds i8, ptr %1, i64 4
  %10 = load i16, ptr %9, align 1
  store i16 %10, ptr %8, align 4
  %11 = getelementptr inbounds i8, ptr %0, i64 16
  %12 = getelementptr inbounds i8, ptr %1, i64 8
  %13 = load i32, ptr %12, align 1
  store i32 %13, ptr %11, align 8
  %14 = getelementptr inbounds i8, ptr %0, i64 24
  tail call void @llvm.memset.p0.i64(ptr noundef nonnull align 8 dereferenceable(24) %14, i8 0, i64 24, i1 false)
  ret void
}